target datalayout = "e-m:e-p270:32:32-p271:32:32-p272:64:64-i64:64-i128:128-f80:128-n8:16:32:64-S128"
target triple = "x86_64-pc-linux-gnu"

%"class.gmx::SelectionTreeElement" = type { i32, %struct.gmx_ana_selvalue_t, ptr, i32, %union.anon.0, ptr, ptr, %"class.std::shared_ptr", %"class.std::shared_ptr", %"class.std::__cxx11::basic_string", %"struct.gmx::SelectionLocation" }
%struct.gmx_ana_selvalue_t = type { i32, i32, %union.anon, i32 }
%union.anon = type { ptr }
%union.anon.0 = type { %struct.anon }
%struct.anon = type { ptr, ptr, ptr, ptr }
%"class.std::shared_ptr" = type { %"class.std::__shared_ptr" }
%"class.std::__shared_ptr" = type { ptr, %"class.std::__shared_count" }
%"class.std::__shared_count" = type { ptr }
%"class.std::__cxx11::basic_string" = type { %"struct.std::__cxx11::basic_string<char>::_Alloc_hider", i64, %union.anon.2 }
%"struct.std::__cxx11::basic_string<char>::_Alloc_hider" = type { ptr }
%union.anon.2 = type { i64, [8 x i8] }
%"struct.gmx::SelectionLocation" = type { i32, i32 }

@.str = private unnamed_addr constant [6 x i8] c"CONST\00", align 1
@.str.1 = private unnamed_addr constant [5 x i8] c"EXPR\00", align 1
@.str.2 = private unnamed_addr constant [5 x i8] c"BOOL\00", align 1
@.str.3 = private unnamed_addr constant [6 x i8] c"ARITH\00", align 1
@.str.4 = private unnamed_addr constant [5 x i8] c"ROOT\00", align 1
@.str.5 = private unnamed_addr constant [8 x i8] c"SUBEXPR\00", align 1
@.str.6 = private unnamed_addr constant [4 x i8] c"REF\00", align 1
@.str.7 = private unnamed_addr constant [9 x i8] c"GROUPREF\00", align 1
@.str.8 = private unnamed_addr constant [9 x i8] c"MODIFIER\00", align 1

; Function Attrs: mustprogress nounwind uwtable
define noundef ptr @_Z21_gmx_selelem_type_strRKN3gmx20SelectionTreeElementE(ptr noundef nonnull align 8 dereferenceable(168) %0) #0 {
  %2 = alloca ptr, align 8
  %3 = alloca ptr, align 8
  store ptr %0, ptr %2, align 8
  store ptr null, ptr %3, align 8
  %4 = load ptr, ptr %2, align 8
  %5 = getelementptr inbounds %"class.gmx::SelectionTreeElement", ptr %4, i32 0, i32 0
  %6 = load i32, ptr %5, align 8
  switch i32 %6, label %16 [
    i32 0, label %7
    i32 1, label %8
    i32 2, label %9
    i32 3, label %10
    i32 4, label %11
    i32 5, label %12
    i32 6, label %13
    i32 7, label %14
    i32 8, label %15
  ]

7:                                                ; preds = %1
  store ptr @.str, ptr %3, align 8
  br label %16

8:                                                ; preds = %1
  store ptr @.str.1, ptr %3, align 8
  br label %16

9:                                                ; preds = %1
  store ptr @.str.2, ptr %3, align 8
  br label %16

10:                                               ; preds = %1
  store ptr @.str.3, ptr %3, align 8
  br label %16

11:                                               ; preds = %1
  store ptr @.str.4, ptr %3, align 8
  br label %16

12:                                               ; preds = %1
  store ptr @.str.5, ptr %3, align 8
  br label %16

13:                                               ; preds = %1
  store ptr @.str.6, ptr %3, align 8
  br label %16

14:                                               ; preds = %1
  store ptr @.str.7, ptr %3, align 8
  br label %16

15:                                               ; preds = %1
  store ptr @.str.8, ptr %3, align 8
  br label %16

16:                                               ; preds = %15, %14, %13, %12, %11, %10, %9, %8, %7, %1
  %17 = load ptr, ptr %3, align 8
  ret ptr %17
}