; Function Attrs: mustprogress nofree norecurse nosync nounwind willreturn memory(argmem: read) uwtable
define noundef ptr @_Z21_gmx_selelem_type_strRKN3gmx20SelectionTreeElementE(ptr nocapture noundef nonnull readonly align 8 dereferenceable(168) %0) local_unnamed_addr #0 {
  %2 = load i32, ptr %0, align 8
  %3 = icmp ult i32 %2, 9
  br i1 %3, label %switch.lookup, label %5

switch.lookup:                                    ; preds = %1
  %4 = zext nneg i32 %2 to i64
  %switch.gep = getelementptr inbounds [9 x ptr], ptr @switch.table._Z23_gmx_selelem_print_treeP8_IO_FILERKN3gmx20SelectionTreeElementEbi, i64 0, i64 %4
  %switch.load = load ptr, ptr %switch.gep, align 8
  br label %5

5:                                                ; preds = %switch.lookup, %1
  %.0 = phi ptr [ null, %1 ], [ %switch.load, %switch.lookup ]
  ret ptr %.0
}